(lp1
(dp2
S'tokeniser'
p3
S'gensim.utils.tokenize'
p4
sS'tokens'
p5
I388292
sS'over_500'
p6
(dp7
S'say/VB'
p8
I2044
sS'call/VB'
p9
I1010
sS'hou/VB'
p10
I2162
sS'last/JJ'
p11
I714
sS'ee/VB'
p12
I548
sS'energy/NN'
p13
I1671
sS'follow/VB'
p14
I669
sS'offer/VB'
p15
I522
sS'contract/NN'
p16
I667
sS'email/NN'
p17
I736
sS'report/VB'
p18
I957
sS'mark/VB'
p19
I527
sS'way/NN'
p20
I551
sS'know/VB'
p21
I937
sS'size/NN'
p22
I577
sS'provide/VB'
p23
I669
sS'new/JJ'
p24
I1626
sS'go/VB'
p25
I525
sS'meeting/NN'
p26
I532
sS'price/NN'
p27
I1336
sS'trading/NN'
p28
I570
sS'need/VB'
p29
I1061
sS'take/VB'
p30
I772
sS'please/VB'
p31
I1828
sS'business/NN'
p32
I1052
sS'want/VB'
p33
I647
sS'start/VB'
p34
I509
sS'forward/VB'
p35
I561
sS'error/NN'
p36
I560
sS'send/VB'
p37
I657
sS'data/VB'
p38
I585
sS'year/NN'
p39
I1112
sS'look/VB'
p40
I531
sS'thank/NN'
p41
I1043
sS'california/NN'
p42
I1201
sS'date/NN'
p43
I514
sS'utility/NN'
p44
I579
sS'market/NN'
p45
I1506
sS'person/NN'
p46
I512
sS'term/NN'
p47
I528
sS'get/VB'
p48
I1231
sS'today/NN'
p49
I558
sS'mail/VB'
p50
I1040
sS'cost/VB'
p51
I529
sS'rate/NN'
p52
I734
sS'use/VB'
p53
I540
sS'think/VB'
p54
I533
sS'net/NN'
p55
I644
sS'company/NN'
p56
I1641
sS'click/NN'
p57
I519
sS'ect/VB'
p58
I4414
sS'system/NN'
p59
I613
sS'also/RB'
p60
I934
sS'information/NN'
p61
I927
sS'time/NN'
p62
I1514
sS'schedule/VB'
p63
I526
sS'month/NN'
p64
I530
sS'gas/NN'
p65
I1069
sS'attach/VB'
p66
I538
sS'electricity/NN'
p67
I794
sS'work/VB'
p68
I824
sS'credit/NN'
p69
I531
sS'agreement/NN'
p70
I574
sS'receive/VB'
p71
I703
sS'first/JJ'
p72
I529
sS'plan/VB'
p73
I656
sS'include/VB'
p74
I757
sS'image/NN'
p75
I1233
sS'corp/VB'
p76
I980
sS'subject/VB'
p77
I1220
sS'day/NN'
p78
I1066
sS'customer/NN'
p79
I633
sS'see/VB'
p80
I806
sS'let/VB'
p81
I587
sS'houston/VB'
p82
I649
sS'file/VB'
p83
I515
sS'make/VB'
p84
I1087
sS'power/NN'
p85
I1927
sS'help/VB'
p86
I539
sS'state/NN'
p87
I1340
sS'give/VB'
p88
I538
sS'group/NN'
p89
I581
sS'service/NN'
p90
I898
sS'week/NN'
p91
I993
sS'enron/VB'
p92
I6742
ssS'stemmer'
p93
S'gensim.utils.lemmatize'
p94
sS'most_common'
p95
(lp96
(g92
I6742
tp97
a(g58
I4414
tp98
a(g10
I2162
tp99
a(g8
I2044
tp100
a(g85
I1927
tp101
a(g31
I1828
tp102
a(g13
I1671
tp103
a(g56
I1641
tp104
a(g24
I1626
tp105
a(g62
I1514
tp106
a(g45
I1506
tp107
a(g87
I1340
tp108
a(g27
I1336
tp109
a(g75
I1233
tp110
a(g48
I1231
tp111
a(g77
I1220
tp112
a(g42
I1201
tp113
a(g39
I1112
tp114
a(g84
I1087
tp115
a(g65
I1069
tp116
a(g78
I1066
tp117
a(g29
I1061
tp118
a(g32
I1052
tp119
a(g41
I1043
tp120
a(g50
I1040
tp121
a(g9
I1010
tp122
a(g91
I993
tp123
a(g76
I980
tp124
a(g18
I957
tp125
a(g21
I937
tp126
a(g60
I934
tp127
a(g61
I927
tp128
a(g90
I898
tp129
a(g68
I824
tp130
a(g80
I806
tp131
a(g67
I794
tp132
a(g30
I772
tp133
a(g74
I757
tp134
a(g17
I736
tp135
a(g52
I734
tp136
a(g11
I714
tp137
a(g71
I703
tp138
a(g14
I669
tp139
a(g23
I669
tp140
a(g16
I667
tp141
a(g37
I657
tp142
a(g73
I656
tp143
a(g82
I649
tp144
a(g33
I647
tp145
a(g55
I644
tp146
asS'unique'
p147
I25420
sa(dp148
g3
S'gensim.utils.tokenize'
p149
sg5
I406310
sg6
(dp150
S'houston'
p151
I655
sS'help'
p152
I587
sS'pric'
p153
I1462
sS'report'
p154
I1024
sS'corp'
p155
I1315
sS'clos'
p156
I503
sS'follow'
p157
I671
sS'busy'
p158
I1080
sS'group'
p159
I583
sS'thank'
p160
I1046
sS'tim'
p161
I1662
sS'day'
p162
I1066
sS'mail'
p163
I1133
sS'fin'
p164
I1179
sS'spec'
p165
I621
sS'fil'
p166
I656
sS'bil'
p167
I900
sS'get'
p168
I1071
sS'util'
p169
I630
sS'dav'
p170
I536
sS'quest'
p171
I668
sS'know'
p172
I860
sS'govern'
p173
I532
sS'not'
p174
I770
sS'gen'
p175
I855
sS'trad'
p176
I1329
sS'term'
p177
I531
sS'bas'
p178
I701
sS'list'
p179
I599
sS'reg'
p180
I771
sS'pleas'
p181
I1844
sS'right'
p182
I641
sS'deal'
p183
I767
sS'ee'
p184
I593
sS'energy'
p185
I1671
sS'back'
p186
I509
sS'sign'
p187
I560
sS'see'
p188
I689
sS'cost'
p189
I550
sS'year'
p190
I1115
sS'ev'
p191
I778
sS'click'
p192
I547
sS'er'
p193
I678
sS'said'
p194
I1486
sS'nee'
p195
I1066
sS'per'
p196
I524
sS'mess'
p197
I566
sS'new'
p198
I2137
sS'net'
p199
I702
sS'email'
p200
I765
sS'ect'
p201
I4419
sS'let'
p202
I810
sS'cur'
p203
I545
sS'on'
p204
I1103
sS'last'
p205
I731
sS'could'
p206
I658
sS'contract'
p207
I756
sS'credit'
p208
I588
sS'act'
p209
I895
sS'commit'
p210
I692
sS'chang'
p211
I728
sS'com'
p212
I784
sS'produc'
p213
I733
sS'first'
p214
I530
sS'elect'
p215
I1135
sS'pow'
p216
I1988
sS'two'
p217
I602
sS'custom'
p218
I668
sS'market'
p219
I1761
sS'would'
p220
I1619
sS'attach'
p221
I682
sS'system'
p222
I625
sS'cent'
p223
I788
sS'mark'
p224
I539
sS'avail'
p225
I576
sS'start'
p226
I524
sS'includ'
p227
I786
sS'way'
p228
I551
sS'forward'
p229
I907
sS'enron'
p230
I6743
sS'today'
p231
I561
sS'buy'
p232
I532
sS'form'
p233
I560
sS'company'
p234
I1642
sS'gas'
p235
I1075
sS'direct'
p236
I690
sS'serv'
p237
I1119
sS'look'
p238
I532
sS'provid'
p239
I908
sS'work'
p240
I879
sS'rat'
p241
I899
sS'us'
p242
I1292
sS'employ'
p243
I502
sS'cal'
p244
I1194
sS'meet'
p245
I706
sS'sal'
p246
I526
sS'int'
p247
I533
sS'high'
p248
I542
sS'say'
p249
I558
sS'im'
p250
I1257
sS'want'
p251
I648
sS'ind'
p252
I504
sS'californ'
p253
I1258
sS'tak'
p254
I690
sS'mil'
p255
I815
sS'receiv'
p256
I754
sS'pay'
p257
I574
sS'lik'
p258
I839
sS'also'
p259
I934
sS'hou'
p260
I2163
sS'nat'
p261
I722
sS'subject'
p262
I1221
sS'week'
p263
I1090
sS'stat'
p264
I1809
sS'may'
p265
I1307
sS'publ'
p266
I547
sS'plan'
p267
I666
sS'mak'
p268
I754
sS'man'
p269
I851
sS'dat'
p270
I1222
sS'off'
p271
I1259
sS'invest'
p272
I566
sS'issu'
p273
I733
sS'inform'
p274
I1013
sS'contact'
p275
I506
sS'siz'
p276
I586
sS'op'
p277
I1063
sS'agr'
p278
I701
ssg93
S'nltk.stem.lancaster.LancasterStemmer.stem'
p279
sg95
(lp280
(g230
I6743
tp281
a(g201
I4419
tp282
a(g260
I2163
tp283
a(g198
I2137
tp284
a(g216
I1988
tp285
a(g181
I1844
tp286
a(g264
I1809
tp287
a(g219
I1761
tp288
a(g185
I1671
tp289
a(g161
I1662
tp290
a(g234
I1642
tp291
a(g220
I1619
tp292
a(g194
I1486
tp293
a(g153
I1462
tp294
a(g176
I1329
tp295
a(g155
I1315
tp296
a(g265
I1307
tp297
a(g242
I1292
tp298
a(g271
I1259
tp299
a(g253
I1258
tp300
a(g250
I1257
tp301
a(g270
I1222
tp302
a(g262
I1221
tp303
a(g244
I1194
tp304
a(g164
I1179
tp305
a(g215
I1135
tp306
a(g163
I1133
tp307
a(g237
I1119
tp308
a(g190
I1115
tp309
a(g204
I1103
tp310
a(g263
I1090
tp311
a(g158
I1080
tp312
a(g235
I1075
tp313
a(g168
I1071
tp314
a(g195
I1066
tp315
a(g162
I1066
tp316
a(g277
I1063
tp317
a(g160
I1046
tp318
a(g154
I1024
tp319
a(g274
I1013
tp320
a(g259
I934
tp321
a(g239
I908
tp322
a(g229
I907
tp323
a(g167
I900
tp324
a(g241
I899
tp325
a(g209
I895
tp326
a(g240
I879
tp327
a(g172
I860
tp328
a(g175
I855
tp329
a(g269
I851
tp330
asg147
I19777
sa(dp331
g3
S'gensim.utils.tokenize'
p332
sg5
I406310
sg6
(dp333
S'houston'
p334
I649
sS'help'
p335
I578
sS'month'
p336
I597
sS'follow'
p337
I669
sS'group'
p338
I583
sS'thank'
p339
I1046
sS'busi'
p340
I1080
sS'mail'
p341
I1110
sS'get'
p342
I1071
sS'util'
p343
I623
sS'know'
p344
I860
sS'report'
p345
I1024
sS'trade'
p346
I1065
sS'day'
p347
I1066
sS'term'
p348
I531
sS'like'
p349
I831
sS'list'
p350
I580
sS'manag'
p351
I624
sS'two'
p352
I602
sS'pleas'
p353
I1828
sS'right'
p354
I641
sS'deal'
p355
I744
sS'ee'
p356
I548
sS'back'
p357
I504
sS'see'
p358
I684
sS'cost'
p359
I544
sS'year'
p360
I1115
sS'energi'
p361
I1671
sS'click'
p362
I544
sS'subject'
p363
I1221
sS'said'
p364
I1486
sS'per'
p365
I521
sS'state'
p366
I1396
sS'new'
p367
I1624
sS'net'
p368
I691
sS'email'
p369
I765
sS'power'
p370
I1973
sS'million'
p371
I561
sS'agreement'
p372
I574
sS'ect'
p373
I4414
sS'corp'
p374
I980
sS'enron'
p375
I6742
sS'last'
p376
I731
sS'could'
p377
I658
sS'contract'
p378
I693
sS'credit'
p379
I539
sS'california'
p380
I1201
sS'let'
p381
I587
sS'chang'
p382
I725
sS'first'
p383
I530
sS'oper'
p384
I651
sS'schedul'
p385
I779
sS'one'
p386
I1090
sS'mark'
p387
I535
sS'market'
p388
I1761
sS'size'
p389
I581
sS'use'
p390
I955
sS'would'
p391
I1619
sS'attach'
p392
I682
sS'question'
p393
I660
sS'system'
p394
I621
sS'messag'
p395
I534
sS'custom'
p396
I657
sS'avail'
p397
I573
sS'start'
p398
I509
sS'call'
p399
I1010
sS'includ'
p400
I757
sS'way'
p401
I551
sS'electr'
p402
I1067
sS'forward'
p403
I907
sS'today'
p404
I561
sS'offer'
p405
I537
sS'imag'
p406
I1243
sS'gas'
p407
I1069
sS'compani'
p408
I1643
sS'look'
p409
I531
sS'provid'
p410
I797
sS'servic'
p411
I899
sS'work'
p412
I826
sS'rate'
p413
I869
sS'error'
p414
I560
sS'meet'
p415
I706
sS'file'
p416
I554
sS'say'
p417
I558
sS'want'
p418
I647
sS'generat'
p419
I571
sS'need'
p420
I1061
sS'receiv'
p421
I735
sS'make'
p422
I716
sS'also'
p423
I934
sS'hou'
p424
I2162
sS'take'
p425
I597
sS'week'
p426
I1090
sS'product'
p427
I568
sS'may'
p428
I1280
sS'price'
p429
I1461
sS'plan'
p430
I656
sS'date'
p431
I636
sS'data'
p432
I585
sS'issu'
p433
I721
sS'inform'
p434
I1012
sS'contact'
p435
I506
sS'time'
p436
I1578
ssg93
S'nltk.stem.snowball.EnglishStemmer.stem'
p437
sg95
(lp438
(g375
I6742
tp439
a(g373
I4414
tp440
a(g424
I2162
tp441
a(g370
I1973
tp442
a(g353
I1828
tp443
a(g388
I1761
tp444
a(g361
I1671
tp445
a(g408
I1643
tp446
a(g367
I1624
tp447
a(g391
I1619
tp448
a(g436
I1578
tp449
a(g364
I1486
tp450
a(g429
I1461
tp451
a(g366
I1396
tp452
a(g428
I1280
tp453
a(g406
I1243
tp454
a(g363
I1221
tp455
a(g380
I1201
tp456
a(g360
I1115
tp457
a(g341
I1110
tp458
a(g386
I1090
tp459
a(g426
I1090
tp460
a(g340
I1080
tp461
a(g342
I1071
tp462
a(g407
I1069
tp463
a(g402
I1067
tp464
a(g347
I1066
tp465
a(g346
I1065
tp466
a(g420
I1061
tp467
a(g339
I1046
tp468
a(g345
I1024
tp469
a(g434
I1012
tp470
a(g399
I1010
tp471
a(g374
I980
tp472
a(g390
I955
tp473
a(g423
I934
tp474
a(g403
I907
tp475
a(g411
I899
tp476
a(g413
I869
tp477
a(g344
I860
tp478
a(g349
I831
tp479
a(g412
I826
tp480
a(g410
I797
tp481
a(g385
I779
tp482
a(g369
I765
tp483
a(g400
I757
tp484
a(g355
I744
tp485
a(g421
I735
tp486
a(g376
I731
tp487
a(g382
I725
tp488
asg147
I23139
sa(dp489
g3
S'gensim.utils.tokenize'
p490
sg5
I406310
sg6
(dp491
S'houston'
p492
I649
sS'help'
p493
I578
sS'month'
p494
I530
sS'ga'
p495
I1069
sS'follow'
p496
I669
sS'group'
p497
I583
sS'thank'
p498
I1046
sS'busi'
p499
I1080
sS'mail'
p500
I1110
sS'get'
p501
I1071
sS'util'
p502
I623
sS'know'
p503
I860
sS'report'
p504
I1010
sS'trade'
p505
I1065
sS'day'
p506
I1066
sS'term'
p507
I531
sS'like'
p508
I831
sS'list'
p509
I580
sS'manag'
p510
I624
sS'two'
p511
I602
sS'pleas'
p512
I1828
sS'right'
p513
I640
sS'deal'
p514
I744
sS'ee'
p515
I548
sS'back'
p516
I504
sS'see'
p517
I684
sS'cost'
p518
I529
sS'year'
p519
I1112
sS'energi'
p520
I1671
sS'click'
p521
I544
sS'subject'
p522
I1221
sS'said'
p523
I1486
sS'per'
p524
I521
sS'state'
p525
I1396
sS'new'
p526
I1624
sS'net'
p527
I691
sS'email'
p528
I765
sS'power'
p529
I1973
sS'gener'
p530
I806
sS'million'
p531
I561
sS'agreement'
p532
I574
sS'ect'
p533
I4414
sS'corp'
p534
I980
sS'enron'
p535
I6742
sS'last'
p536
I723
sS'could'
p537
I658
sS'contract'
p538
I693
sS'credit'
p539
I539
sS'california'
p540
I1201
sS'let'
p541
I587
sS'chang'
p542
I725
sS'first'
p543
I528
sS'oper'
p544
I651
sS'schedul'
p545
I779
sS'one'
p546
I1090
sS'mark'
p547
I535
sS'market'
p548
I1761
sS'size'
p549
I581
sS'use'
p550
I955
sS'would'
p551
I1619
sS'attach'
p552
I682
sS'question'
p553
I660
sS'system'
p554
I621
sS'messag'
p555
I534
sS'custom'
p556
I657
sS'avail'
p557
I573
sS'start'
p558
I509
sS'call'
p559
I1010
sS'includ'
p560
I757
sS'way'
p561
I551
sS'electr'
p562
I1067
sS'forward'
p563
I907
sS'today'
p564
I561
sS'offer'
p565
I537
sS'imag'
p566
I1243
sS'compani'
p567
I1643
sS'look'
p568
I531
sS'provid'
p569
I797
sS'servic'
p570
I899
sS'work'
p571
I826
sS'rate'
p572
I869
sS'error'
p573
I560
sS'meet'
p574
I706
sS'file'
p575
I554
sS'say'
p576
I558
sS'want'
p577
I647
sS'need'
p578
I1061
sS'receiv'
p579
I735
sS'make'
p580
I716
sS'also'
p581
I934
sS'hou'
p582
I2163
sS'take'
p583
I597
sS'week'
p584
I996
sS'product'
p585
I568
sS'may'
p586
I1280
sS'price'
p587
I1461
sS'plan'
p588
I656
sS'date'
p589
I636
sS'data'
p590
I585
sS'issu'
p591
I721
sS'inform'
p592
I1012
sS'contact'
p593
I506
sS'time'
p594
I1578
ssg93
S'nltk.stem.snowball.PorterStemmer.stem'
p595
sg95
(lp596
(g535
I6742
tp597
a(g533
I4414
tp598
a(g582
I2163
tp599
a(g529
I1973
tp600
a(g512
I1828
tp601
a(g548
I1761
tp602
a(g520
I1671
tp603
a(g567
I1643
tp604
a(g526
I1624
tp605
a(g551
I1619
tp606
a(g594
I1578
tp607
a(g523
I1486
tp608
a(g587
I1461
tp609
a(g525
I1396
tp610
a(g586
I1280
tp611
a(g566
I1243
tp612
a(g522
I1221
tp613
a(g540
I1201
tp614
a(g519
I1112
tp615
a(g500
I1110
tp616
a(g546
I1090
tp617
a(g499
I1080
tp618
a(g501
I1071
tp619
a(g495
I1069
tp620
a(g562
I1067
tp621
a(g506
I1066
tp622
a(g505
I1065
tp623
a(g578
I1061
tp624
a(g498
I1046
tp625
a(g592
I1012
tp626
a(g559
I1010
tp627
a(g504
I1010
tp628
a(g584
I996
tp629
a(g534
I980
tp630
a(g550
I955
tp631
a(g581
I934
tp632
a(g563
I907
tp633
a(g570
I899
tp634
a(g572
I869
tp635
a(g503
I860
tp636
a(g508
I831
tp637
a(g571
I826
tp638
a(g530
I806
tp639
a(g569
I797
tp640
a(g545
I779
tp641
a(g528
I765
tp642
a(g560
I757
tp643
a(g514
I744
tp644
a(g579
I735
tp645
a(g542
I725
tp646
asg147
I23229
sa(dp647
g3
S'gensim.utils.tokenize'
p648
sg5
I406310
sg6
(dp649
S'houston'
p650
I649
sS'california'
p651
I1201
sS'would'
p652
I1619
sS'deal'
p653
I702
sS'ee'
p654
I548
sS'please'
p655
I1798
sS'image'
p656
I1233
sS'know'
p657
I850
sS'one'
p658
I1090
sS'price'
p659
I1336
sS'report'
p660
I729
sS'see'
p661
I641
sS'cost'
p662
I527
sS'trading'
p663
I570
sS'thanks'
p664
I805
sS'want'
p665
I509
sS'year'
p666
I1112
sS'need'
p667
I910
sS'work'
p668
I506
sS'click'
p669
I519
sS'market'
p670
I1506
sS'size'
p671
I577
sS'utility'
p672
I579
sS'information'
p673
I927
sS'use'
p674
I540
sS'said'
p675
I1486
sS'group'
p676
I581
sS'power'
p677
I1927
sS'service'
p678
I898
sS'electricity'
p679
I800
sS'make'
p680
I579
sS'question'
p681
I616
sS'system'
p682
I613
sS'per'
p683
I521
sS'mark'
p684
I501
sS'business'
p685
I1052
sS'also'
p686
I934
sS'state'
p687
I1340
sS'hou'
p688
I2162
sS'call'
p689
I827
sS'way'
p690
I551
sS'time'
p691
I1514
sS'new'
p692
I1624
sS'net'
p693
I647
sS'subject'
p694
I1214
sS'issue'
p695
I623
sS'email'
p696
I760
sS'today'
p697
I561
sS'week'
p698
I993
sS'energy'
p699
I1671
sS'get'
p700
I902
sS'may'
p701
I1278
sS'forwarded'
p702
I561
sS'company'
p703
I1641
sS'million'
p704
I561
sS'gas'
p705
I1075
sS'agreement'
p706
I574
sS'ect'
p707
I4413
sS'let'
p708
I581
sS'plan'
p709
I519
sS'mail'
p710
I999
sS'date'
p711
I597
sS'month'
p712
I530
sS'data'
p713
I585
sS'day'
p714
I1066
sS'change'
p715
I611
sS'enron'
p716
I6740
sS'customer'
p717
I633
sS'term'
p718
I528
sS'last'
p719
I716
sS'like'
p720
I694
sS'meeting'
p721
I532
sS'could'
p722
I658
sS'right'
p723
I637
sS'attached'
p724
I519
sS'rate'
p725
I734
sS'contract'
p726
I667
sS'credit'
p727
I531
sS'error'
p728
I560
sS'corp'
p729
I980
sS'two'
p730
I602
sS'first'
p731
I528
ssg93
S'nltk.stem.WordNetLemmatizer.lemmatize'
p732
sg95
(lp733
(g716
I6740
tp734
a(g707
I4413
tp735
a(g688
I2162
tp736
a(g677
I1927
tp737
a(g655
I1798
tp738
a(g699
I1671
tp739
a(g703
I1641
tp740
a(g692
I1624
tp741
a(g652
I1619
tp742
a(g691
I1514
tp743
a(g670
I1506
tp744
a(g675
I1486
tp745
a(g687
I1340
tp746
a(g659
I1336
tp747
a(g701
I1278
tp748
a(g656
I1233
tp749
a(g694
I1214
tp750
a(g651
I1201
tp751
a(g666
I1112
tp752
a(g658
I1090
tp753
a(g705
I1075
tp754
a(g714
I1066
tp755
a(g685
I1052
tp756
a(g710
I999
tp757
a(g698
I993
tp758
a(g729
I980
tp759
a(g686
I934
tp760
a(g673
I927
tp761
a(g667
I910
tp762
a(g700
I902
tp763
a(g678
I898
tp764
a(g657
I850
tp765
a(g689
I827
tp766
a(g664
I805
tp767
a(g679
I800
tp768
a(g696
I760
tp769
a(g725
I734
tp770
a(g660
I729
tp771
a(g719
I716
tp772
a(g653
I702
tp773
a(g720
I694
tp774
a(g726
I667
tp775
a(g722
I658
tp776
a(g650
I649
tp777
a(g693
I647
tp778
a(g661
I641
tp779
a(g723
I637
tp780
a(g717
I633
tp781
a(g695
I623
tp782
a(g681
I616
tp783
asg147
I28357
sa(dp784
g3
S'nltk.tokenize.PunktWordTokenizer.tokenize'
p785
sg5
I343042
sg6
(dp786
S'say/VB'
p787
I1601
sS'enron/NN'
p788
I4331
sS'energy/NN'
p789
I1490
sS'time/NN'
p790
I1274
sS'contract/NN'
p791
I583
sS'gas/NN'
p792
I995
sS'provide/VB'
p793
I558
sS'also/RB'
p794
I929
sS'br/NN'
p795
I583
sS'new/JJ'
p796
I1296
sS'go/VB'
p797
I517
sS'price/NN'
p798
I1214
sS'california/NN'
p799
I1113
sS'take/VB'
p800
I599
sS'please/VB'
p801
I608
sS'business/NN'
p802
I926
sS'forward/VB'
p803
I564
sS'error/NN'
p804
I544
sS'year/NN'
p805
I751
sS'thank/NN'
p806
I832
sS'need/VB'
p807
I527
sS'ect/NN'
p808
I4095
sS'report/NN'
p809
I543
sS'subject/NN'
p810
I744
sS'market/NN'
p811
I1280
sS'credit/NN'
p812
I501
sS'date/NN'
p813
I514
sS'day/NN'
p814
I779
sS'utility/NN'
p815
I535
sS'font/NN'
p816
I1106
sS'know/VB'
p817
I595
sS'company/NN'
p818
I1470
sS'system/NN'
p819
I521
sS'last/JJ'
p820
I700
sS'rate/NN'
p821
I646
sS'electricity/NN'
p822
I757
sS'enron/VB'
p823
I724
sS'deal/NN'
p824
I540
sS'agreement/NN'
p825
I500
sS'receive/VB'
p826
I526
sS'td/NN'
p827
I1004
sS'include/VB'
p828
I692
sS'image/NN'
p829
I913
sS'customer/NN'
p830
I518
sS'get/VB'
p831
I1032
sS'see/VB'
p832
I601
sS'hou/NN'
p833
I1740
sS'make/VB'
p834
I972
sS'please/NN'
p835
I970
sS'power/NN'
p836
I1811
sS'state/NN'
p837
I1113
sS'information/NN'
p838
I839
sS'group/NN'
p839
I511
sS'service/NN'
p840
I782
sS'week/NN'
p841
I749
ssg93
S'gensim.utils.lemmatize'
p842
sg95
(lp843
(g788
I4331
tp844
a(g808
I4095
tp845
a(g836
I1811
tp846
a(g833
I1740
tp847
a(g787
I1601
tp848
a(g789
I1490
tp849
a(g818
I1470
tp850
a(g796
I1296
tp851
a(g811
I1280
tp852
a(g790
I1274
tp853
a(g798
I1214
tp854
a(g799
I1113
tp855
a(g837
I1113
tp856
a(g816
I1106
tp857
a(g831
I1032
tp858
a(g827
I1004
tp859
a(g792
I995
tp860
a(g834
I972
tp861
a(g835
I970
tp862
a(g794
I929
tp863
a(g802
I926
tp864
a(g829
I913
tp865
a(g838
I839
tp866
a(g806
I832
tp867
a(g840
I782
tp868
a(g814
I779
tp869
a(g822
I757
tp870
a(g805
I751
tp871
a(g841
I749
tp872
a(g810
I744
tp873
a(g823
I724
tp874
a(g820
I700
tp875
a(g828
I692
tp876
a(g821
I646
tp877
a(g801
I608
tp878
a(g832
I601
tp879
a(g800
I599
tp880
a(g817
I595
tp881
a(g791
I583
tp882
a(g795
I583
tp883
a(g803
I564
tp884
a(g793
I558
tp885
a(g804
I544
tp886
a(g809
I543
tp887
a(g824
I540
tp888
a(g815
I535
tp889
a(g807
I527
tp890
a(g826
I526
tp891
a(g819
I521
tp892
a(g830
I518
tp893
asg147
I29620
sa(dp894
g3
S'nltk.tokenize.PunktWordTokenizer.tokenize'
p895
sg5
I367637
sg6
(dp896
S'houston'
p897
I554
sS'help'
p898
I511
sS'pric'
p899
I1284
sS'report'
p900
I912
sS'follow'
p901
I628
sS'busy'
p902
I931
sS'group'
p903
I505
sS'cur'
p904
I515
sS'tim'
p905
I1382
sS'day'
p906
I760
sS'fin'
p907
I1080
sS'spec'
p908
I566
sS'fil'
p909
I581
sS'bil'
p910
I743
sS'get'
p911
I1054
sS'util'
p912
I569
sS'quest'
p913
I538
sS'know'
p914
I767
sS'not'
p915
I691
sS'gen'
p916
I758
sS'trad'
p917
I1187
sS'pleas'
p918
I1818
sS'right'
p919
I590
sS'deal'
p920
I643
sS'energy'
p921
I1454
sS'direct'
p922
I616
sS'sign'
p923
I508
sS'see'
p924
I673
sS'year'
p925
I737
sS'ev'
p926
I701
sS'er'
p927
I644
sS'said'
p928
I1089
sS'nee'
p929
I1002
sS'thank'
p930
I867
sS'per'
p931
I507
sS'new'
p932
I2020
sS'reg'
p933
I659
sS'ect'
p934
I2072
sS'let'
p935
I763
sS'enron'
p936
I3645
sS'on'
p937
I948
sS'last'
p938
I711
sS'could'
p939
I648
sS'contract'
p940
I654
sS'credit'
p941
I546
sS'act'
p942
I739
sS'commit'
p943
I606
sS'chang'
p944
I670
sS'com'
p945
I683
sS'produc'
p946
I607
sS'op'
p947
I883
sS'elect'
p948
I1055
sS'pow'
p949
I1803
sS'two'
p950
I537
sS'market'
p951
I1474
sS'would'
p952
I1600
sS'system'
p953
I525
sS'cent'
p954
I660
sS'custom'
p955
I534
sS'avail'
p956
I509
sS'attach'
p957
I627
sS'includ'
p958
I762
sS'forward'
p959
I870
sS'company'
p960
I1441
sS'gas'
p961
I968
sS'serv'
p962
I968
sS'look'
p963
I512
sS'provid'
p964
I858
sS'=20'
p965
I2787
sS'work'
p966
I809
sS'us'
p967
I1201
sS'cal'
p968
I932
sS'meet'
p969
I599
sS'rat'
p970
I755
sS'im'
p971
I909
sS'want'
p972
I629
sS'californ'
p973
I1083
sS'tak'
p974
I663
sS'mil'
p975
I623
sS'receiv'
p976
I736
sS'pay'
p977
I526
sS'lik'
p978
I809
sS'also'
p979
I920
sS'nat'
p980
I658
sS'subject'
p981
I1186
sS'week'
p982
I823
sS'stat'
p983
I1538
sS'may'
p984
I1260
sS'plan'
p985
I610
sS'mak'
p986
I732
sS'man'
p987
I697
sS'dat'
p988
I890
sS'off'
p989
I1116
sS'invest'
p990
I503
sS'issu'
p991
I614
sS'inform'
p992
I911
sS'2001'
p993
I818
sS'agr'
p994
I616
ssg93
S'nltk.stem.lancaster.LancasterStemmer.stem'
p995
sg95
(lp996
(g936
I3645
tp997
a(g965
I2787
tp998
a(g934
I2072
tp999
a(g932
I2020
tp1000
a(g918
I1818
tp1001
a(g949
I1803
tp1002
a(g952
I1600
tp1003
a(g983
I1538
tp1004
a(g951
I1474
tp1005
a(g921
I1454
tp1006
a(g960
I1441
tp1007
a(g905
I1382
tp1008
a(g899
I1284
tp1009
a(g984
I1260
tp1010
a(g967
I1201
tp1011
a(g917
I1187
tp1012
a(g981
I1186
tp1013
a(g989
I1116
tp1014
a(g928
I1089
tp1015
a(g973
I1083
tp1016
a(g907
I1080
tp1017
a(g948
I1055
tp1018
a(g911
I1054
tp1019
a(g929
I1002
tp1020
a(g961
I968
tp1021
a(g962
I968
tp1022
a(g937
I948
tp1023
a(g968
I932
tp1024
a(g902
I931
tp1025
a(g979
I920
tp1026
a(g900
I912
tp1027
a(g992
I911
tp1028
a(g971
I909
tp1029
a(g988
I890
tp1030
a(g947
I883
tp1031
a(g959
I870
tp1032
a(g930
I867
tp1033
a(g964
I858
tp1034
a(g982
I823
tp1035
a(g993
I818
tp1036
a(g966
I809
tp1037
a(g978
I809
tp1038
a(g914
I767
tp1039
a(g935
I763
tp1040
a(g958
I762
tp1041
a(g906
I760
tp1042
a(g916
I758
tp1043
a(g970
I755
tp1044
a(g910
I743
tp1045
a(g942
I739
tp1046
asg147
I27920
sa(dp1047
g3
S'nltk.tokenize.PunktWordTokenizer.tokenize'
p1048
sg5
I367637
sg6
(dp1049
S'oper'
p1050
I535
sS'houston'
p1051
I548
sS'right'
p1052
I590
sS'help'
p1053
I504
sS'deal'
p1054
I628
sS'schedul'
p1055
I574
sS'generat'
p1056
I526
sS'one'
p1057
I939
sS'report'
p1058
I912
sS'see'
p1059
I668
sS'want'
p1060
I628
sS'year'
p1061
I737
sS'need'
p1062
I1000
sS'follow'
p1063
I628
sS'energi'
p1064
I1454
sS'california'
p1065
I1041
sS'market'
p1066
I1474
sS'subject'
p1067
I1186
sS'use'
p1068
I904
sS'said'
p1069
I1089
sS'group'
p1070
I505
sS'thank'
p1071
I867
sS'would'
p1072
I1600
sS'attach'
p1073
I627
sS'receiv'
p1074
I717
sS'make'
p1075
I701
sS'question'
p1076
I533
sS'system'
p1077
I521
sS'per'
p1078
I505
sS'custom'
p1079
I525
sS'avail'
p1080
I509
sS'also'
p1081
I920
sS'state'
p1082
I1199
sS'busi'
p1083
I930
sS'call'
p1084
I887
sS'take'
p1085
I576
sS'electr'
p1086
I1001
sS'forward'
p1087
I870
sS'new'
p1088
I1579
sS'enron'
p1089
I3644
sS'=20'
p1090
I2787
sS'imag'
p1091
I905
sS'includ'
p1092
I735
sS'week'
p1093
I823
sS'power'
p1094
I1803
sS'get'
p1095
I1054
sS'may'
p1096
I1238
sS'price'
p1097
I1284
sS'credit'
p1098
I505
sS'gas'
p1099
I965
sS'util'
p1100
I562
sS'pleas'
p1101
I1806
sS'ect'
p1102
I2069
sS'let'
p1103
I581
sS'plan'
p1104
I601
sS'date'
p1105
I549
sS'compani'
p1106
I1441
sS'trade'
p1107
I965
sS'day'
p1108
I760
sS'look'
p1109
I512
sS'last'
p1110
I711
sS'like'
p1111
I804
sS'provid'
p1112
I760
sS'could'
p1113
I648
sS'work'
p1114
I765
sS'rate'
p1115
I731
sS'contract'
p1116
I597
sS'manag'
p1117
I569
sS'issu'
p1118
I602
sS'inform'
p1119
I911
sS'2001'
p1120
I818
sS'time'
p1121
I1306
sS'error'
p1122
I543
sS'meet'
p1123
I599
sS'chang'
p1124
I667
sS'servic'
p1125
I767
sS'two'
p1126
I537
sS'know'
p1127
I767
ssg93
S'nltk.stem.snowball.EnglishStemmer.stem'
p1128
sg95
(lp1129
(g1089
I3644
tp1130
a(g1090
I2787
tp1131
a(g1102
I2069
tp1132
a(g1101
I1806
tp1133
a(g1094
I1803
tp1134
a(g1072
I1600
tp1135
a(g1088
I1579
tp1136
a(g1066
I1474
tp1137
a(g1064
I1454
tp1138
a(g1106
I1441
tp1139
a(g1121
I1306
tp1140
a(g1097
I1284
tp1141
a(g1096
I1238
tp1142
a(g1082
I1199
tp1143
a(g1067
I1186
tp1144
a(g1069
I1089
tp1145
a(g1095
I1054
tp1146
a(g1065
I1041
tp1147
a(g1086
I1001
tp1148
a(g1062
I1000
tp1149
a(g1099
I965
tp1150
a(g1107
I965
tp1151
a(g1057
I939
tp1152
a(g1083
I930
tp1153
a(g1081
I920
tp1154
a(g1058
I912
tp1155
a(g1119
I911
tp1156
a(g1091
I905
tp1157
a(g1068
I904
tp1158
a(g1084
I887
tp1159
a(g1087
I870
tp1160
a(g1071
I867
tp1161
a(g1093
I823
tp1162
a(g1120
I818
tp1163
a(g1111
I804
tp1164
a(g1125
I767
tp1165
a(g1127
I767
tp1166
a(g1114
I765
tp1167
a(g1112
I760
tp1168
a(g1108
I760
tp1169
a(g1061
I737
tp1170
a(g1092
I735
tp1171
a(g1115
I731
tp1172
a(g1074
I717
tp1173
a(g1110
I711
tp1174
a(g1075
I701
tp1175
a(g1059
I668
tp1176
a(g1124
I667
tp1177
a(g1113
I648
tp1178
a(g1060
I628
tp1179
asg147
I30522
sa(dp1180
g3
S'nltk.tokenize.PunktWordTokenizer.tokenize'
p1181
sg5
I367637
sg6
(dp1182
S'oper'
p1183
I535
sS'houston'
p1184
I548
sS'right'
p1185
I589
sS'ga'
p1186
I965
sS'deal'
p1187
I628
sS'schedul'
p1188
I574
sS'one'
p1189
I939
sS'report'
p1190
I898
sS'see'
p1191
I668
sS'want'
p1192
I628
sS'year'
p1193
I734
sS'need'
p1194
I1000
sS'follow'
p1195
I628
sS'energi'
p1196
I1454
sS'california'
p1197
I1041
sS'market'
p1198
I1474
sS'help'
p1199
I504
sS'use'
p1200
I904
sS'said'
p1201
I1089
sS'group'
p1202
I505
sS'thank'
p1203
I867
sS'would'
p1204
I1600
sS'attach'
p1205
I627
sS'receiv'
p1206
I717
sS'make'
p1207
I701
sS'question'
p1208
I533
sS'system'
p1209
I521
sS'per'
p1210
I505
sS'custom'
p1211
I525
sS'avail'
p1212
I509
sS'also'
p1213
I920
sS'enron'
p1214
I3644
sS'busi'
p1215
I930
sS'call'
p1216
I887
sS'take'
p1217
I576
sS'electr'
p1218
I1001
sS'forward'
p1219
I870
sS'new'
p1220
I1579
sS'subject'
p1221
I1186
sS'=20'
p1222
I2787
sS'gener'
p1223
I740
sS'includ'
p1224
I735
sS'week'
p1225
I740
sS'power'
p1226
I1803
sS'get'
p1227
I1054
sS'may'
p1228
I1238
sS'price'
p1229
I1284
sS'credit'
p1230
I505
sS'util'
p1231
I562
sS'pleas'
p1232
I1806
sS'ect'
p1233
I2069
sS'let'
p1234
I581
sS'plan'
p1235
I601
sS'date'
p1236
I549
sS'compani'
p1237
I1441
sS'trade'
p1238
I965
sS'imag'
p1239
I905
sS'day'
p1240
I760
sS'look'
p1241
I512
sS'state'
p1242
I1199
sS'last'
p1243
I703
sS'like'
p1244
I804
sS'provid'
p1245
I760
sS'could'
p1246
I648
sS'work'
p1247
I765
sS'rate'
p1248
I731
sS'contract'
p1249
I597
sS'manag'
p1250
I569
sS'issu'
p1251
I602
sS'inform'
p1252
I911
sS'2001'
p1253
I818
sS'time'
p1254
I1306
sS'error'
p1255
I543
sS'meet'
p1256
I599
sS'chang'
p1257
I667
sS'servic'
p1258
I767
sS'two'
p1259
I537
sS'know'
p1260
I767
ssg93
S'nltk.stem.snowball.PorterStemmer.stem'
p1261
sg95
(lp1262
(g1214
I3644
tp1263
a(g1222
I2787
tp1264
a(g1233
I2069
tp1265
a(g1232
I1806
tp1266
a(g1226
I1803
tp1267
a(g1204
I1600
tp1268
a(g1220
I1579
tp1269
a(g1198
I1474
tp1270
a(g1196
I1454
tp1271
a(g1237
I1441
tp1272
a(g1254
I1306
tp1273
a(g1229
I1284
tp1274
a(g1228
I1238
tp1275
a(g1242
I1199
tp1276
a(g1221
I1186
tp1277
a(g1201
I1089
tp1278
a(g1227
I1054
tp1279
a(g1197
I1041
tp1280
a(g1218
I1001
tp1281
a(g1194
I1000
tp1282
a(g1186
I965
tp1283
a(g1238
I965
tp1284
a(g1189
I939
tp1285
a(g1215
I930
tp1286
a(g1213
I920
tp1287
a(g1252
I911
tp1288
a(g1239
I905
tp1289
a(g1200
I904
tp1290
a(g1190
I898
tp1291
a(g1216
I887
tp1292
a(g1219
I870
tp1293
a(g1203
I867
tp1294
a(g1253
I818
tp1295
a(g1244
I804
tp1296
a(g1258
I767
tp1297
a(g1260
I767
tp1298
a(g1247
I765
tp1299
a(g1245
I760
tp1300
a(g1240
I760
tp1301
a(g1225
I740
tp1302
a(g1223
I740
tp1303
a(g1224
I735
tp1304
a(g1193
I734
tp1305
a(g1248
I731
tp1306
a(g1206
I717
tp1307
a(g1243
I703
tp1308
a(g1207
I701
tp1309
a(g1191
I668
tp1310
a(g1257
I667
tp1311
a(g1246
I648
tp1312
asg147
I30617
sa(dp1313
g3
S'nltk.tokenize.PunktWordTokenizer.tokenize'
p1314
sg5
I367637
sg6
(dp1315
S'houston'
p1316
I548
sS'right'
p1317
I586
sS'deal'
p1318
I598
sS'image'
p1319
I905
sS'one'
p1320
I939
sS'report'
p1321
I637
sS'see'
p1322
I627
sS'trading'
p1323
I507
sS'thanks'
p1324
I632
sS'year'
p1325
I734
sS'need'
p1326
I873
sS'market'
p1327
I1266
sS'subject'
p1328
I1179
sS'utility'
p1329
I521
sS'information'
p1330
I829
sS'use'
p1331
I509
sS'said'
p1332
I1089
sS'group'
p1333
I503
sS'power'
p1334
I1765
sS'would'
p1335
I1600
sS'electricity'
p1336
I744
sS'make'
p1337
I572
sS'please'
p1338
I1777
sS'system'
p1339
I513
sS'per'
p1340
I505
sS'business'
p1341
I904
sS'also'
p1342
I920
sS'state'
p1343
I1146
sS'call'
p1344
I727
sS'new'
p1345
I1579
sS'enron'
p1346
I3642
sS'=20'
p1347
I2787
sS'price'
p1348
I1174
sS'week'
p1349
I739
sS'energy'
p1350
I1454
sS'get'
p1351
I885
sS'may'
p1352
I1237
sS'forwarded'
p1353
I559
sS'company'
p1354
I1441
sS'time'
p1355
I1247
sS'gas'
p1356
I968
sS'ect'
p1357
I2068
sS'let'
p1358
I575
sS'two'
p1359
I537
sS'date'
p1360
I510
sS'day'
p1361
I760
sS'change'
p1362
I568
sS'like'
p1363
I674
sS'customer'
p1364
I506
sS'last'
p1365
I696
sS'service'
p1366
I767
sS'issue'
p1367
I512
sS'could'
p1368
I648
sS'rate'
p1369
I640
sS'contract'
p1370
I573
sS'2001'
p1371
I818
sS'error'
p1372
I543
sS'california'
p1373
I1041
sS'know'
p1374
I757
ssg93
S'nltk.stem.WordNetLemmatizer.lemmatize'
p1375
sg95
(lp1376
(g1346
I3642
tp1377
a(g1347
I2787
tp1378
a(g1357
I2068
tp1379
a(g1338
I1777
tp1380
a(g1334
I1765
tp1381
a(g1335
I1600
tp1382
a(g1345
I1579
tp1383
a(g1350
I1454
tp1384
a(g1354
I1441
tp1385
a(g1327
I1266
tp1386
a(g1355
I1247
tp1387
a(g1352
I1237
tp1388
a(g1328
I1179
tp1389
a(g1348
I1174
tp1390
a(g1343
I1146
tp1391
a(g1332
I1089
tp1392
a(g1373
I1041
tp1393
a(g1356
I968
tp1394
a(g1320
I939
tp1395
a(g1342
I920
tp1396
a(g1319
I905
tp1397
a(g1341
I904
tp1398
a(g1351
I885
tp1399
a(g1326
I873
tp1400
a(g1330
I829
tp1401
a(g1371
I818
tp1402
a(g1366
I767
tp1403
a(g1361
I760
tp1404
a(g1374
I757
tp1405
a(g1336
I744
tp1406
a(g1349
I739
tp1407
a(g1325
I734
tp1408
a(g1344
I727
tp1409
a(g1365
I696
tp1410
a(g1363
I674
tp1411
a(g1368
I648
tp1412
a(g1369
I640
tp1413
a(g1321
I637
tp1414
a(g1324
I632
tp1415
a(g1322
I627
tp1416
a(g1318
I598
tp1417
a(g1317
I586
tp1418
a(g1358
I575
tp1419
a(g1370
I573
tp1420
a(g1337
I572
tp1421
a(g1362
I568
tp1422
a(g1353
I559
tp1423
a(g1316
I548
tp1424
a(g1372
I543
tp1425
a(g1359
I537
tp1426
asg147
I35206
sa(dp1427
g3
S'nltk.tokenize.WordPunctTokenizer.tokenize'
p1428
sg5
I388409
sg6
(dp1429
S'say/VB'
p1430
I2039
sS'last/JJ'
p1431
I714
sS'energy/NN'
p1432
I1671
sS'email/NN'
p1433
I748
sS'time/NN'
p1434
I1514
sS'contract/NN'
p1435
I667
sS'call/NN'
p1436
I516
sS'provide/VB'
p1437
I562
sS'way/NN'
p1438
I551
sS'also/RB'
p1439
I934
sS'size/NN'
p1440
I577
sS'new/JJ'
p1441
I1301
sS'go/VB'
p1442
I532
sS'corp/NN'
p1443
I765
sS'mail/NN'
p1444
I943
sS'price/NN'
p1445
I1336
sS'need/VB'
p1446
I569
sS'take/VB'
p1447
I620
sS'please/VB'
p1448
I653
sS'business/NN'
p1449
I1052
sS'forward/VB'
p1450
I566
sS'error/NN'
p1451
I560
sS'year/NN'
p1452
I1112
sS'thank/NN'
p1453
I1016
sS'california/NN'
p1454
I1201
sS'ect/NN'
p1455
I4167
sS'report/NN'
p1456
I612
sS'subject/NN'
p1457
I762
sS'market/NN'
p1458
I1506
sS'person/NN'
p1459
I512
sS'term/NN'
p1460
I528
sS'date/NN'
p1461
I583
sS'today/NN'
p1462
I558
sS'day/NN'
p1463
I1066
sS'utility/NN'
p1464
I579
sS'issue/NN'
p1465
I586
sS'enron/NN'
p1466
I5862
sS'know/VB'
p1467
I640
sS'change/NN'
p1468
I524
sS'company/NN'
p1469
I1641
sS'click/NN'
p1470
I519
sS'system/NN'
p1471
I613
sS'credit/NN'
p1472
I531
sS'net/NN'
p1473
I549
sS'question/NN'
p1474
I588
sS'month/NN'
p1475
I530
sS'rate/NN'
p1476
I734
sS'electricity/NN'
p1477
I799
sS'deal/NN'
p1478
I629
sS'agreement/NN'
p1479
I574
sS'receive/VB'
p1480
I532
sS'include/VB'
p1481
I713
sS'image/NN'
p1482
I1233
sS'houston/NN'
p1483
I511
sS'gas/NN'
p1484
I1069
sS'customer/NN'
p1485
I633
sS'get/VB'
p1486
I1052
sS'see/VB'
p1487
I607
sS'hou/NN'
p1488
I1758
sS'let/VB'
p1489
I508
sS'make/VB'
p1490
I993
sS'please/NN'
p1491
I948
sS'power/NN'
p1492
I1927
sS'state/NN'
p1493
I1261
sS'information/NN'
p1494
I927
sS'group/NN'
p1495
I581
sS'service/NN'
p1496
I898
sS'week/NN'
p1497
I993
ssg93
S'gensim.utils.lemmatize'
p1498
sg95
(lp1499
(g1466
I5862
tp1500
a(g1455
I4167
tp1501
a(g1430
I2039
tp1502
a(g1492
I1927
tp1503
a(g1488
I1758
tp1504
a(g1432
I1671
tp1505
a(g1469
I1641
tp1506
a(g1434
I1514
tp1507
a(g1458
I1506
tp1508
a(g1445
I1336
tp1509
a(g1441
I1301
tp1510
a(g1493
I1261
tp1511
a(g1482
I1233
tp1512
a(g1454
I1201
tp1513
a(g1452
I1112
tp1514
a(g1484
I1069
tp1515
a(g1463
I1066
tp1516
a(g1449
I1052
tp1517
a(g1486
I1052
tp1518
a(g1453
I1016
tp1519
a(g1497
I993
tp1520
a(g1490
I993
tp1521
a(g1491
I948
tp1522
a(g1444
I943
tp1523
a(g1439
I934
tp1524
a(g1494
I927
tp1525
a(g1496
I898
tp1526
a(g1477
I799
tp1527
a(g1443
I765
tp1528
a(g1457
I762
tp1529
a(g1433
I748
tp1530
a(g1476
I734
tp1531
a(g1431
I714
tp1532
a(g1481
I713
tp1533
a(g1435
I667
tp1534
a(g1448
I653
tp1535
a(g1467
I640
tp1536
a(g1485
I633
tp1537
a(g1478
I629
tp1538
a(g1447
I620
tp1539
a(g1471
I613
tp1540
a(g1456
I612
tp1541
a(g1487
I607
tp1542
a(g1474
I588
tp1543
a(g1465
I586
tp1544
a(g1461
I583
tp1545
a(g1495
I581
tp1546
a(g1464
I579
tp1547
a(g1440
I577
tp1548
a(g1479
I574
tp1549
asg147
I32854
sa(dp1550
g3
S'nltk.tokenize.WordPunctTokenizer.tokenize'
p1551
sg5
I427665
sg6
(dp1552
S'houston'
p1553
I655
sS'help'
p1554
I587
sS'pric'
p1555
I1462
sS'report'
p1556
I1024
sS'clos'
p1557
I503
sS'follow'
p1558
I671
sS'busy'
p1559
I1080
sS'group'
p1560
I583
sS'cur'
p1561
I545
sS'tim'
p1562
I1662
sS'day'
p1563
I1063
sS'mail'
p1564
I1127
sS'fin'
p1565
I1178
sS'spec'
p1566
I620
sS'fil'
p1567
I655
sS'bil'
p1568
I900
sS'get'
p1569
I1071
sS'713'
p1570
I788
sS'util'
p1571
I630
sS'dav'
p1572
I536
sS'quest'
p1573
I668
sS'know'
p1574
I859
sS'govern'
p1575
I532
sS'not'
p1576
I768
sS'gen'
p1577
I851
sS'trad'
p1578
I1329
sS'term'
p1579
I531
sS'bas'
p1580
I692
sS'list'
p1581
I598
sS'reg'
p1582
I770
sS'pleas'
p1583
I1844
sS'right'
p1584
I641
sS'deal'
p1585
I767
sS'ee'
p1586
I588
sS'energy'
p1587
I1623
sS'direct'
p1588
I690
sS'sign'
p1589
I560
sS'see'
p1590
I689
sS'cost'
p1591
I550
sS'year'
p1592
I1113
sS'ev'
p1593
I778
sS'click'
p1594
I547
sS'er'
p1595
I677
sS'said'
p1596
I1486
sS'nee'
p1597
I1066
sS'thank'
p1598
I1046
sS'per'
p1599
I524
sS'mess'
p1600
I566
sS'new'
p1601
I2137
sS'net'
p1602
I698
sS'email'
p1603
I764
sS'></'
p1604
I855
sS'ect'
p1605
I4415
sS'corp'
p1606
I1314
sS'enron'
p1607
I6730
sS'on'
p1608
I1103
sS'last'
p1609
I731
sS'could'
p1610
I658
sS'contract'
p1611
I756
sS'credit'
p1612
I588
sS'act'
p1613
I895
sS'let'
p1614
I809
sS'chang'
p1615
I728
sS'com'
p1616
I784
sS'produc'
p1617
I733
sS'op'
p1618
I1063
sS'elect'
p1619
I1135
sS'pow'
p1620
I1986
sS'two'
p1621
I602
sS'mark'
p1622
I539
sS'market'
p1623
I1759
sS'would'
p1624
I1619
sS'attach'
p1625
I682
sS'system'
p1626
I625
sS'cent'
p1627
I782
sS'custom'
p1628
I668
sS'avail'
p1629
I576
sS'start'
p1630
I524
sS'includ'
p1631
I786
sS'way'
p1632
I551
sS'forward'
p1633
I907
sS'today'
p1634
I561
sS'2001'
p1635
I2164
sS'buy'
p1636
I532
sS'form'
p1637
I559
sS'company'
p1638
I1642
sS'gas'
p1639
I1075
sS'back'
p1640
I507
sS'serv'
p1641
I1119
sS'look'
p1642
I532
sS'provid'
p1643
I908
sS'work'
p1644
I879
sS'rat'
p1645
I899
sS'us'
p1646
I1292
sS'employ'
p1647
I500
sS'cal'
p1648
I1193
sS'meet'
p1649
I706
sS'sal'
p1650
I526
sS'int'
p1651
I533
sS'high'
p1652
I541
sS'say'
p1653
I558
sS'im'
p1654
I1225
sS'want'
p1655
I648
sS'ind'
p1656
I501
sS'californ'
p1657
I1258
sS'tak'
p1658
I690
sS'mil'
p1659
I810
sS'receiv'
p1660
I754
sS'siz'
p1661
I586
sS'lik'
p1662
I839
sS'also'
p1663
I934
sS'hou'
p1664
I2163
sS'nat'
p1665
I722
sS'subject'
p1666
I1221
sS'week'
p1667
I1086
sS'stat'
p1668
I1803
sS'may'
p1669
I1305
sS'publ'
p1670
I546
sS'000'
p1671
I521
sS'plan'
p1672
I666
sS'commit'
p1673
I692
sS'mak'
p1674
I754
sS'man'
p1675
I850
sS'dat'
p1676
I1018
sS'off'
p1677
I1259
sS'invest'
p1678
I566
sS'issu'
p1679
I730
sS'inform'
p1680
I1013
sS'2000'
p1681
I1281
sS'contact'
p1682
I506
sS'pay'
p1683
I574
sS'first'
p1684
I530
sS'agr'
p1685
I701
ssg93
S'nltk.stem.lancaster.LancasterStemmer.stem'
p1686
sg95
(lp1687
(g1607
I6730
tp1688
a(g1605
I4415
tp1689
a(g1635
I2164
tp1690
a(g1664
I2163
tp1691
a(g1601
I2137
tp1692
a(g1620
I1986
tp1693
a(g1583
I1844
tp1694
a(g1668
I1803
tp1695
a(g1623
I1759
tp1696
a(g1562
I1662
tp1697
a(g1638
I1642
tp1698
a(g1587
I1623
tp1699
a(g1624
I1619
tp1700
a(g1596
I1486
tp1701
a(g1555
I1462
tp1702
a(g1578
I1329
tp1703
a(g1606
I1314
tp1704
a(g1669
I1305
tp1705
a(g1646
I1292
tp1706
a(g1681
I1281
tp1707
a(g1677
I1259
tp1708
a(g1657
I1258
tp1709
a(g1654
I1225
tp1710
a(g1666
I1221
tp1711
a(g1648
I1193
tp1712
a(g1565
I1178
tp1713
a(g1619
I1135
tp1714
a(g1564
I1127
tp1715
a(g1641
I1119
tp1716
a(g1592
I1113
tp1717
a(g1608
I1103
tp1718
a(g1667
I1086
tp1719
a(g1559
I1080
tp1720
a(g1639
I1075
tp1721
a(g1569
I1071
tp1722
a(g1597
I1066
tp1723
a(g1618
I1063
tp1724
a(g1563
I1063
tp1725
a(g1598
I1046
tp1726
a(g1556
I1024
tp1727
a(g1676
I1018
tp1728
a(g1680
I1013
tp1729
a(g1663
I934
tp1730
a(g1643
I908
tp1731
a(g1633
I907
tp1732
a(g1568
I900
tp1733
a(g1645
I899
tp1734
a(g1613
I895
tp1735
a(g1644
I879
tp1736
a(g1574
I859
tp1737
asg147
I24782
sa(dp1738
g3
S'nltk.tokenize.WordPunctTokenizer.tokenize'
p1739
sg5
I427665
sg6
(dp1740
S'houston'
p1741
I649
sS'help'
p1742
I578
sS'month'
p1743
I596
sS'follow'
p1744
I669
sS'group'
p1745
I583
sS'thank'
p1746
I1046
sS'busi'
p1747
I1080
sS'mail'
p1748
I1104
sS'get'
p1749
I1071
sS'713'
p1750
I788
sS'util'
p1751
I623
sS'know'
p1752
I859
sS'report'
p1753
I1024
sS'trade'
p1754
I1065
sS'day'
p1755
I1063
sS'term'
p1756
I531
sS'like'
p1757
I831
sS'list'
p1758
I579
sS'manag'
p1759
I624
sS'two'
p1760
I602
sS'pleas'
p1761
I1828
sS'right'
p1762
I641
sS'deal'
p1763
I744
sS'ee'
p1764
I543
sS'back'
p1765
I502
sS'see'
p1766
I684
sS'cost'
p1767
I544
sS'year'
p1768
I1113
sS'energi'
p1769
I1623
sS'click'
p1770
I544
sS'subject'
p1771
I1221
sS'said'
p1772
I1486
sS'per'
p1773
I521
sS'state'
p1774
I1394
sS'new'
p1775
I1624
sS'net'
p1776
I687
sS'email'
p1777
I764
sS'></'
p1778
I855
sS'power'
p1779
I1973
sS'million'
p1780
I561
sS'agreement'
p1781
I574
sS'ect'
p1782
I4412
sS'corp'
p1783
I979
sS'enron'
p1784
I6729
sS'last'
p1785
I731
sS'could'
p1786
I658
sS'contract'
p1787
I693
sS'credit'
p1788
I539
sS'california'
p1789
I1201
sS'let'
p1790
I587
sS'chang'
p1791
I725
sS'first'
p1792
I530
sS'oper'
p1793
I651
sS'schedul'
p1794
I779
sS'one'
p1795
I1090
sS'mark'
p1796
I535
sS'market'
p1797
I1759
sS'size'
p1798
I581
sS'use'
p1799
I955
sS'would'
p1800
I1619
sS'attach'
p1801
I682
sS'question'
p1802
I660
sS'system'
p1803
I621
sS'messag'
p1804
I534
sS'custom'
p1805
I657
sS'avail'
p1806
I573
sS'start'
p1807
I509
sS'call'
p1808
I1010
sS'includ'
p1809
I757
sS'way'
p1810
I551
sS'electr'
p1811
I1067
sS'forward'
p1812
I907
sS'today'
p1813
I561
sS'2001'
p1814
I2164
sS'offer'
p1815
I537
sS'imag'
p1816
I1211
sS'gas'
p1817
I1069
sS'compani'
p1818
I1643
sS'look'
p1819
I531
sS'provid'
p1820
I797
sS'servic'
p1821
I899
sS'work'
p1822
I826
sS'rate'
p1823
I869
sS'error'
p1824
I560
sS'meet'
p1825
I706
sS'file'
p1826
I554
sS'say'
p1827
I558
sS'want'
p1828
I647
sS'generat'
p1829
I570
sS'need'
p1830
I1061
sS'receiv'
p1831
I735
sS'make'
p1832
I716
sS'also'
p1833
I934
sS'hou'
p1834
I2162
sS'take'
p1835
I597
sS'week'
p1836
I1086
sS'product'
p1837
I568
sS'may'
p1838
I1278
sS'price'
p1839
I1461
sS'000'
p1840
I521
sS'plan'
p1841
I656
sS'date'
p1842
I635
sS'issu'
p1843
I718
sS'inform'
p1844
I1012
sS'2000'
p1845
I1281
sS'contact'
p1846
I506
sS'time'
p1847
I1578
ssg93
S'nltk.stem.snowball.EnglishStemmer.stem'
p1848
sg95
(lp1849
(g1784
I6729
tp1850
a(g1782
I4412
tp1851
a(g1814
I2164
tp1852
a(g1834
I2162
tp1853
a(g1779
I1973
tp1854
a(g1761
I1828
tp1855
a(g1797
I1759
tp1856
a(g1818
I1643
tp1857
a(g1775
I1624
tp1858
a(g1769
I1623
tp1859
a(g1800
I1619
tp1860
a(g1847
I1578
tp1861
a(g1772
I1486
tp1862
a(g1839
I1461
tp1863
a(g1774
I1394
tp1864
a(g1845
I1281
tp1865
a(g1838
I1278
tp1866
a(g1771
I1221
tp1867
a(g1816
I1211
tp1868
a(g1789
I1201
tp1869
a(g1768
I1113
tp1870
a(g1748
I1104
tp1871
a(g1795
I1090
tp1872
a(g1836
I1086
tp1873
a(g1747
I1080
tp1874
a(g1749
I1071
tp1875
a(g1817
I1069
tp1876
a(g1811
I1067
tp1877
a(g1754
I1065
tp1878
a(g1755
I1063
tp1879
a(g1830
I1061
tp1880
a(g1746
I1046
tp1881
a(g1753
I1024
tp1882
a(g1844
I1012
tp1883
a(g1808
I1010
tp1884
a(g1783
I979
tp1885
a(g1799
I955
tp1886
a(g1833
I934
tp1887
a(g1812
I907
tp1888
a(g1821
I899
tp1889
a(g1823
I869
tp1890
a(g1752
I859
tp1891
a(g1778
I855
tp1892
a(g1757
I831
tp1893
a(g1822
I826
tp1894
a(g1820
I797
tp1895
a(g1750
I788
tp1896
a(g1794
I779
tp1897
a(g1777
I764
tp1898
a(g1809
I757
tp1899
asg147
I28089
sa(dp1900
g3
S'nltk.tokenize.WordPunctTokenizer.tokenize'
p1901
sg5
I427665
sg6
(dp1902
S'houston'
p1903
I649
sS'help'
p1904
I578
sS'month'
p1905
I529
sS'ga'
p1906
I1069
sS'follow'
p1907
I669
sS'group'
p1908
I583
sS'thank'
p1909
I1046
sS'busi'
p1910
I1080
sS'mail'
p1911
I1104
sS'get'
p1912
I1071
sS'713'
p1913
I788
sS'util'
p1914
I623
sS'know'
p1915
I859
sS'report'
p1916
I1010
sS'trade'
p1917
I1065
sS'day'
p1918
I1063
sS'term'
p1919
I531
sS'like'
p1920
I831
sS'list'
p1921
I579
sS'manag'
p1922
I624
sS'two'
p1923
I602
sS'pleas'
p1924
I1828
sS'right'
p1925
I640
sS'deal'
p1926
I744
sS'ee'
p1927
I543
sS'back'
p1928
I502
sS'see'
p1929
I684
sS'cost'
p1930
I529
sS'year'
p1931
I1110
sS'energi'
p1932
I1623
sS'click'
p1933
I544
sS'subject'
p1934
I1221
sS'said'
p1935
I1486
sS'per'
p1936
I521
sS'state'
p1937
I1394
sS'new'
p1938
I1624
sS'net'
p1939
I687
sS'email'
p1940
I764
sS'></'
p1941
I855
sS'power'
p1942
I1973
sS'gener'
p1943
I804
sS'million'
p1944
I561
sS'agreement'
p1945
I574
sS'ect'
p1946
I4412
sS'corp'
p1947
I979
sS'enron'
p1948
I6729
sS'last'
p1949
I723
sS'could'
p1950
I658
sS'contract'
p1951
I693
sS'credit'
p1952
I539
sS'california'
p1953
I1201
sS'let'
p1954
I587
sS'chang'
p1955
I725
sS'first'
p1956
I528
sS'oper'
p1957
I651
sS'schedul'
p1958
I779
sS'one'
p1959
I1090
sS'mark'
p1960
I535
sS'market'
p1961
I1759
sS'size'
p1962
I581
sS'use'
p1963
I955
sS'would'
p1964
I1619
sS'attach'
p1965
I682
sS'question'
p1966
I660
sS'system'
p1967
I621
sS'messag'
p1968
I534
sS'custom'
p1969
I657
sS'avail'
p1970
I573
sS'start'
p1971
I509
sS'call'
p1972
I1010
sS'includ'
p1973
I757
sS'way'
p1974
I551
sS'electr'
p1975
I1067
sS'forward'
p1976
I907
sS'today'
p1977
I561
sS'2001'
p1978
I2164
sS'offer'
p1979
I537
sS'imag'
p1980
I1211
sS'compani'
p1981
I1643
sS'look'
p1982
I531
sS'provid'
p1983
I797
sS'servic'
p1984
I899
sS'work'
p1985
I826
sS'rate'
p1986
I869
sS'error'
p1987
I560
sS'meet'
p1988
I706
sS'file'
p1989
I554
sS'say'
p1990
I558
sS'want'
p1991
I647
sS'need'
p1992
I1061
sS'receiv'
p1993
I735
sS'make'
p1994
I716
sS'also'
p1995
I934
sS'hou'
p1996
I2163
sS'take'
p1997
I597
sS'week'
p1998
I993
sS'product'
p1999
I568
sS'may'
p2000
I1278
sS'price'
p2001
I1461
sS'000'
p2002
I521
sS'plan'
p2003
I656
sS'date'
p2004
I635
sS'issu'
p2005
I718
sS'inform'
p2006
I1012
sS'2000'
p2007
I1281
sS'contact'
p2008
I506
sS'time'
p2009
I1578
ssg93
S'nltk.stem.snowball.PorterStemmer.stem'
p2010
sg95
(lp2011
(g1948
I6729
tp2012
a(g1946
I4412
tp2013
a(g1978
I2164
tp2014
a(g1996
I2163
tp2015
a(g1942
I1973
tp2016
a(g1924
I1828
tp2017
a(g1961
I1759
tp2018
a(g1981
I1643
tp2019
a(g1938
I1624
tp2020
a(g1932
I1623
tp2021
a(g1964
I1619
tp2022
a(g2009
I1578
tp2023
a(g1935
I1486
tp2024
a(g2001
I1461
tp2025
a(g1937
I1394
tp2026
a(g2007
I1281
tp2027
a(g2000
I1278
tp2028
a(g1934
I1221
tp2029
a(g1980
I1211
tp2030
a(g1953
I1201
tp2031
a(g1931
I1110
tp2032
a(g1911
I1104
tp2033
a(g1959
I1090
tp2034
a(g1910
I1080
tp2035
a(g1912
I1071
tp2036
a(g1906
I1069
tp2037
a(g1975
I1067
tp2038
a(g1917
I1065
tp2039
a(g1918
I1063
tp2040
a(g1992
I1061
tp2041
a(g1909
I1046
tp2042
a(g2006
I1012
tp2043
a(g1972
I1010
tp2044
a(g1916
I1010
tp2045
a(g1998
I993
tp2046
a(g1947
I979
tp2047
a(g1963
I955
tp2048
a(g1995
I934
tp2049
a(g1976
I907
tp2050
a(g1984
I899
tp2051
a(g1986
I869
tp2052
a(g1915
I859
tp2053
a(g1941
I855
tp2054
a(g1920
I831
tp2055
a(g1985
I826
tp2056
a(g1943
I804
tp2057
a(g1983
I797
tp2058
a(g1913
I788
tp2059
a(g1958
I779
tp2060
a(g1940
I764
tp2061
asg147
I28175
sa(dp2062
g3
S'nltk.tokenize.WordPunctTokenizer.tokenize'
p2063
sg5
I427665
sg6
(dp2064
S'houston'
p2065
I649
sS'month'
p2066
I529
sS'corp'
p2067
I979
sS'thanks'
p2068
I805
sS'group'
p2069
I581
sS'electricity'
p2070
I800
sS'mail'
p2071
I993
sS'get'
p2072
I902
sS'713'
p2073
I788
sS'know'
p2074
I849
sS'report'
p2075
I729
sS'day'
p2076
I1063
sS'term'
p2077
I528
sS'like'
p2078
I694
sS'two'
p2079
I602
sS'right'
p2080
I637
sS'deal'
p2081
I702
sS'ee'
p2082
I543
sS'energy'
p2083
I1623
sS'see'
p2084
I641
sS'cost'
p2085
I527
sS'trading'
p2086
I570
sS'year'
p2087
I1110
sS'click'
p2088
I519
sS'subject'
p2089
I1214
sS'said'
p2090
I1486
sS'business'
p2091
I1052
sS'please'
p2092
I1798
sS'per'
p2093
I521
sS'state'
p2094
I1338
sS'new'
p2095
I1624
sS'net'
p2096
I643
sS'utility'
p2097
I579
sS'issue'
p2098
I621
sS'email'
p2099
I759
sS'></'
p2100
I855
sS'power'
p2101
I1927
sS'million'
p2102
I561
sS'agreement'
p2103
I574
sS'ect'
p2104
I4411
sS'california'
p2105
I1201
sS'change'
p2106
I611
sS'enron'
p2107
I6727
sS'last'
p2108
I716
sS'service'
p2109
I898
sS'could'
p2110
I658
sS'contract'
p2111
I667
sS'credit'
p2112
I531
sS'let'
p2113
I581
sS'first'
p2114
I528
sS'image'
p2115
I1201
sS'one'
p2116
I1090
sS'market'
p2117
I1504
sS'size'
p2118
I577
sS'use'
p2119
I540
sS'forwarded'
p2120
I561
sS'would'
p2121
I1619
sS'question'
p2122
I616
sS'system'
p2123
I613
sS'mark'
p2124
I501
sS'call'
p2125
I827
sS'way'
p2126
I551
sS'meeting'
p2127
I532
sS'today'
p2128
I561
sS'company'
p2129
I1641
sS'gas'
p2130
I1075
sS'customer'
p2131
I633
sS'work'
p2132
I506
sS'attached'
p2133
I519
sS'rate'
p2134
I734
sS'error'
p2135
I560
sS'want'
p2136
I509
sS'need'
p2137
I910
sS'information'
p2138
I927
sS'make'
p2139
I579
sS'also'
p2140
I934
sS'hou'
p2141
I2162
sS'week'
p2142
I990
sS'may'
p2143
I1276
sS'price'
p2144
I1336
sS'000'
p2145
I521
sS'plan'
p2146
I519
sS'date'
p2147
I596
sS'2000'
p2148
I1281
sS'2001'
p2149
I2164
sS'time'
p2150
I1514
ssg93
S'nltk.stem.WordNetLemmatizer.lemmatize'
p2151
sg95
(lp2152
(g2107
I6727
tp2153
a(g2104
I4411
tp2154
a(g2149
I2164
tp2155
a(g2141
I2162
tp2156
a(g2101
I1927
tp2157
a(g2092
I1798
tp2158
a(g2129
I1641
tp2159
a(g2095
I1624
tp2160
a(g2083
I1623
tp2161
a(g2121
I1619
tp2162
a(g2150
I1514
tp2163
a(g2117
I1504
tp2164
a(g2090
I1486
tp2165
a(g2094
I1338
tp2166
a(g2144
I1336
tp2167
a(g2148
I1281
tp2168
a(g2143
I1276
tp2169
a(g2089
I1214
tp2170
a(g2115
I1201
tp2171
a(g2105
I1201
tp2172
a(g2087
I1110
tp2173
a(g2116
I1090
tp2174
a(g2130
I1075
tp2175
a(g2076
I1063
tp2176
a(g2091
I1052
tp2177
a(g2071
I993
tp2178
a(g2142
I990
tp2179
a(g2067
I979
tp2180
a(g2140
I934
tp2181
a(g2138
I927
tp2182
a(g2137
I910
tp2183
a(g2072
I902
tp2184
a(g2109
I898
tp2185
a(g2100
I855
tp2186
a(g2074
I849
tp2187
a(g2125
I827
tp2188
a(g2068
I805
tp2189
a(g2070
I800
tp2190
a(g2073
I788
tp2191
a(g2099
I759
tp2192
a(g2134
I734
tp2193
a(g2075
I729
tp2194
a(g2108
I716
tp2195
a(g2081
I702
tp2196
a(g2078
I694
tp2197
a(g2111
I667
tp2198
a(g2110
I658
tp2199
a(g2065
I649
tp2200
a(g2096
I643
tp2201
a(g2084
I641
tp2202
asg147
I33292
sa.